target datalayout = "e-m:e-p270:32:32-p271:32:32-p272:64:64-i64:64-i128:128-f80:128-n8:16:32:64-S128"
target triple = "x86_64-pc-linux-gnu"

%struct.jit_State = type { %struct.GCtrace, ptr, ptr, ptr, ptr, ptr, ptr, i32, i32, i32, i8, i8, %struct.IRType1, i8, %struct.FoldState, ptr, i32, i32, i32, i32, i32, i32, i32, [1 x i32], [5 x %union.TValue], [3 x %union.TValue], ptr, i32, i32, i32, i32, ptr, ptr, i32, i32, i8, ptr, i32, i32, i16, [101 x i16], [258 x i32], [15 x i32], [16 x ptr], [64 x %struct.HotPenalty], i32, [16 x %struct.BPropEntry], i32, %struct.ScEvEntry, ptr, i32, i32, i32, ptr, i32, i32, ptr, ptr, ptr, i64, i64, %union.TValue, ptr, i32, i32 }
%struct.GCtrace = type { %struct.GCRef, i8, i8, i16, i32, i32, %struct.GCRef, ptr, i32, i32, ptr, ptr, %struct.GCRef, %struct.MRef, i32, i32, ptr, i32, i16, i16, i16, i16, i16, i16, i16, i8, i8, i8, i8 }
%struct.GCRef = type { i64 }
%struct.MRef = type { i64 }
%struct.IRType1 = type { i8 }
%struct.FoldState = type { %union.IRIns, [2 x %union.IRIns], [2 x %union.IRIns] }
%union.IRIns = type { %struct.GCRef }
%struct.HotPenalty = type { %struct.MRef, i16, i16 }
%struct.BPropEntry = type { i16, i16, i32 }
%struct.ScEvEntry = type { %struct.MRef, i16, i16, i16, i16, %struct.IRType1, i8 }
%union.TValue = type { i64 }
%struct.anon = type { i16, i16, i16, i16 }

; Function Attrs: nounwind uwtable
define hidden i32 @lj_opt_fwd_sbuf(ptr noundef %0, i32 noundef %1) #0 {
  %3 = alloca i32, align 4
  %4 = alloca ptr, align 8
  %5 = alloca i32, align 4
  %6 = alloca i32, align 4
  %7 = alloca i32, align 4
  %8 = alloca ptr, align 8
  %9 = alloca ptr, align 8
  store ptr %0, ptr %4, align 8, !tbaa !4
  store i32 %1, ptr %5, align 4, !tbaa !9
  call void @llvm.lifetime.start.p0(i64 4, ptr %6) #5
  %10 = load ptr, ptr %4, align 8, !tbaa !4
  %11 = getelementptr inbounds nuw %struct.jit_State, ptr %10, i32 0, i32 40
  %12 = getelementptr inbounds [101 x i16], ptr %11, i64 0, i64 86
  %13 = load i16, ptr %12, align 2, !tbaa !12
  %14 = zext i16 %13 to i32
  %15 = load i32, ptr %5, align 4, !tbaa !9
  %16 = icmp ugt i32 %14, %15
  br i1 %16, label %17, label %18

17:                                               ; preds = %2
  store i32 0, ptr %3, align 4
  store i32 1, ptr %7, align 4
  br label %95

18:                                               ; preds = %2
  %19 = load ptr, ptr %4, align 8, !tbaa !4
  %20 = getelementptr inbounds nuw %struct.jit_State, ptr %19, i32 0, i32 40
  %21 = getelementptr inbounds [101 x i16], ptr %20, i64 0, i64 98
  %22 = load i16, ptr %21, align 2, !tbaa !12
  %23 = zext i16 %22 to i32
  store i32 %23, ptr %6, align 4, !tbaa !9
  br label %24

24:                                               ; preds = %55, %18
  %25 = load i32, ptr %6, align 4, !tbaa !9
  %26 = load i32, ptr %5, align 4, !tbaa !9
  %27 = icmp ugt i32 %25, %26
  br i1 %27, label %28, label %56

28:                                               ; preds = %24
  call void @llvm.lifetime.start.p0(i64 8, ptr %8) #5
  %29 = load ptr, ptr %4, align 8, !tbaa !4
  %30 = getelementptr inbounds nuw %struct.jit_State, ptr %29, i32 0, i32 0
  %31 = getelementptr inbounds nuw %struct.GCtrace, ptr %30, i32 0, i32 7
  %32 = load ptr, ptr %31, align 8, !tbaa !14
  %33 = load i32, ptr %6, align 4, !tbaa !9
  %34 = zext i32 %33 to i64
  %35 = getelementptr inbounds nuw %union.IRIns, ptr %32, i64 %34
  store ptr %35, ptr %8, align 8, !tbaa !32
  %36 = load ptr, ptr %8, align 8, !tbaa !32
  %37 = getelementptr inbounds nuw %struct.anon, ptr %36, i32 0, i32 1
  %38 = load i16, ptr %37, align 2, !tbaa !11
  %39 = zext i16 %38 to i32
  %40 = icmp sge i32 %39, 7
  br i1 %40, label %41, label %48

41:                                               ; preds = %28
  %42 = load ptr, ptr %8, align 8, !tbaa !32
  %43 = getelementptr inbounds nuw %struct.anon, ptr %42, i32 0, i32 1
  %44 = load i16, ptr %43, align 2, !tbaa !11
  %45 = zext i16 %44 to i32
  %46 = icmp slt i32 %45, 30
  br i1 %46, label %47, label %48

47:                                               ; preds = %41
  store i32 0, ptr %3, align 4
  store i32 1, ptr %7, align 4
  br label %53

48:                                               ; preds = %41, %28
  %49 = load ptr, ptr %8, align 8, !tbaa !32
  %50 = getelementptr inbounds nuw %struct.anon, ptr %49, i32 0, i32 3
  %51 = load i16, ptr %50, align 2, !tbaa !11
  %52 = zext i16 %51 to i32
  store i32 %52, ptr %6, align 4, !tbaa !9
  store i32 0, ptr %7, align 4
  br label %53

53:                                               ; preds = %48, %47
  call void @llvm.lifetime.end.p0(i64 8, ptr %8) #5
  %54 = load i32, ptr %7, align 4
  switch i32 %54, label %95 [
    i32 0, label %55
  ]

55:                                               ; preds = %53
  br label %24, !llvm.loop !65

56:                                               ; preds = %24
  %57 = load ptr, ptr %4, align 8, !tbaa !4
  %58 = getelementptr inbounds nuw %struct.jit_State, ptr %57, i32 0, i32 40
  %59 = getelementptr inbounds [101 x i16], ptr %58, i64 0, i64 97
  %60 = load i16, ptr %59, align 2, !tbaa !12
  %61 = zext i16 %60 to i32
  store i32 %61, ptr %6, align 4, !tbaa !9
  br label %62

62:                                               ; preds = %93, %56
  %63 = load i32, ptr %6, align 4, !tbaa !9
  %64 = load i32, ptr %5, align 4, !tbaa !9
  %65 = icmp ugt i32 %63, %64
  br i1 %65, label %66, label %94

66:                                               ; preds = %62
  call void @llvm.lifetime.start.p0(i64 8, ptr %9) #5
  %67 = load ptr, ptr %4, align 8, !tbaa !4
  %68 = getelementptr inbounds nuw %struct.jit_State, ptr %67, i32 0, i32 0
  %69 = getelementptr inbounds nuw %struct.GCtrace, ptr %68, i32 0, i32 7
  %70 = load ptr, ptr %69, align 8, !tbaa !14
  %71 = load i32, ptr %6, align 4, !tbaa !9
  %72 = zext i32 %71 to i64
  %73 = getelementptr inbounds nuw %union.IRIns, ptr %70, i64 %72
  store ptr %73, ptr %9, align 8, !tbaa !32
  %74 = load ptr, ptr %9, align 8, !tbaa !32
  %75 = getelementptr inbounds nuw %struct.anon, ptr %74, i32 0, i32 1
  %76 = load i16, ptr %75, align 2, !tbaa !11
  %77 = zext i16 %76 to i32
  %78 = icmp sge i32 %77, 7
  br i1 %78, label %79, label %86

79:                                               ; preds = %66
  %80 = load ptr, ptr %9, align 8, !tbaa !32
  %81 = getelementptr inbounds nuw %struct.anon, ptr %80, i32 0, i32 1
  %82 = load i16, ptr %81, align 2, !tbaa !11
  %83 = zext i16 %82 to i32
  %84 = icmp slt i32 %83, 30
  br i1 %84, label %85, label %86

85:                                               ; preds = %79
  store i32 0, ptr %3, align 4
  store i32 1, ptr %7, align 4
  br label %91

86:                                               ; preds = %79, %66
  %87 = load ptr, ptr %9, align 8, !tbaa !32
  %88 = getelementptr inbounds nuw %struct.anon, ptr %87, i32 0, i32 3
  %89 = load i16, ptr %88, align 2, !tbaa !11
  %90 = zext i16 %89 to i32
  store i32 %90, ptr %6, align 4, !tbaa !9
  store i32 0, ptr %7, align 4
  br label %91

91:                                               ; preds = %86, %85
  call void @llvm.lifetime.end.p0(i64 8, ptr %9) #5
  %92 = load i32, ptr %7, align 4
  switch i32 %92, label %95 [
    i32 0, label %93
  ]

93:                                               ; preds = %91
  br label %62, !llvm.loop !66

94:                                               ; preds = %62
  store i32 1, ptr %3, align 4
  store i32 1, ptr %7, align 4
  br label %95

95:                                               ; preds = %94, %91, %53, %17
  call void @llvm.lifetime.end.p0(i64 4, ptr %6) #5
  %96 = load i32, ptr %3, align 4
  ret i32 %96
}