; Function Attrs: nofree norecurse nosync nounwind memory(read, inaccessiblemem: none) uwtable
define hidden range(i32 0, 2) i32 @lj_opt_fwd_sbuf(ptr noundef readonly captures(none) %0, i32 noundef %1) local_unnamed_addr #0 {
  %3 = getelementptr inbounds nuw i8, ptr %0, i64 574
  %4 = load i16, ptr %3, align 2, !tbaa !33
  %5 = zext i16 %4 to i32
  %6 = icmp ult i32 %1, %5
  br i1 %6, label %.thread, label %7

7:                                                ; preds = %2
  %8 = getelementptr inbounds nuw i8, ptr %0, i64 598
  %.021.in37 = load i16, ptr %8, align 2, !tbaa !4
  %.02138 = zext i16 %.021.in37 to i32
  %9 = icmp ult i32 %1, %.02138
  br i1 %9, label %.lr.ph, label %._crit_edge

.lr.ph:                                           ; preds = %7
  %10 = getelementptr inbounds nuw i8, ptr %0, i64 32
  %11 = load ptr, ptr %10, align 8, !tbaa !7
  %12 = trunc i32 %1 to i16
  br label %16

13:                                               ; preds = %16
  %14 = getelementptr inbounds nuw i8, ptr %18, i64 6
  %.021.in = load i16, ptr %14, align 2, !tbaa !4
  %15 = icmp ugt i16 %.021.in, %12
  br i1 %15, label %16, label %._crit_edge, !llvm.loop !46

16:                                               ; preds = %.lr.ph, %13
  %.021.in39 = phi i16 [ %.021.in37, %.lr.ph ], [ %.021.in, %13 ]
  %17 = zext i16 %.021.in39 to i64
  %18 = getelementptr inbounds nuw %union.IRIns, ptr %11, i64 %17
  %19 = getelementptr inbounds nuw i8, ptr %18, i64 2
  %20 = load i16, ptr %19, align 2, !tbaa !4
  %21 = add i16 %20, -7
  %or.cond = icmp ult i16 %21, 23
  br i1 %or.cond, label %.thread, label %13

._crit_edge:                                      ; preds = %13, %7
  %22 = getelementptr inbounds nuw i8, ptr %0, i64 596
  %.223.in40 = load i16, ptr %22, align 2, !tbaa !4
  %.22341 = zext i16 %.223.in40 to i32
  %23 = icmp ult i32 %1, %.22341
  br i1 %23, label %.lr.ph44, label %.thread

.lr.ph44:                                         ; preds = %._crit_edge
  %24 = getelementptr inbounds nuw i8, ptr %0, i64 32
  %25 = load ptr, ptr %24, align 8, !tbaa !7
  %26 = trunc i32 %1 to i16
  br label %30

27:                                               ; preds = %30
  %28 = getelementptr inbounds nuw i8, ptr %32, i64 6
  %.223.in = load i16, ptr %28, align 2, !tbaa !4
  %29 = icmp ugt i16 %.223.in, %26
  br i1 %29, label %30, label %.thread, !llvm.loop !47

30:                                               ; preds = %.lr.ph44, %27
  %.223.in42 = phi i16 [ %.223.in40, %.lr.ph44 ], [ %.223.in, %27 ]
  %31 = zext i16 %.223.in42 to i64
  %32 = getelementptr inbounds nuw %union.IRIns, ptr %25, i64 %31
  %33 = getelementptr inbounds nuw i8, ptr %32, i64 2
  %34 = load i16, ptr %33, align 2, !tbaa !4
  %35 = add i16 %34, -7
  %or.cond30 = icmp ult i16 %35, 23
  br i1 %or.cond30, label %.thread, label %27

.thread:                                          ; preds = %16, %27, %30, %._crit_edge, %2
  %.0 = phi i32 [ 0, %2 ], [ 1, %._crit_edge ], [ 1, %27 ], [ 0, %30 ], [ 0, %16 ]
  ret i32 %.0
}